target datalayout = "e-m:e-p270:32:32-p271:32:32-p272:64:64-i64:64-i128:128-f80:128-n8:16:32:64-S128"
target triple = "x86_64-pc-linux-gnu"

; Function Attrs: inlinehint nounwind uwtable
define internal i32 @norm__(i64 noundef %0, i32 noundef %1) #3 {
  %3 = alloca i32, align 4
  %4 = alloca i64, align 8
  %5 = alloca i32, align 4
  store i64 %0, ptr %4, align 8, !tbaa !32
  store i32 %1, ptr %5, align 4, !tbaa !34
  %6 = load i32, ptr %5, align 4, !tbaa !34
  %7 = icmp sgt i32 %6, 0
  br i1 %7, label %8, label %19

8:                                                ; preds = %2
  %9 = load i64, ptr %4, align 8, !tbaa !32
  %10 = load i32, ptr %5, align 4, !tbaa !34
  %11 = sub nsw i32 %10, 1
  %12 = zext i32 %11 to i64
  %13 = shl i64 1, %12
  %14 = add nsw i64 %9, %13
  %15 = load i32, ptr %5, align 4, !tbaa !34
  %16 = zext i32 %15 to i64
  %17 = ashr i64 %14, %16
  %18 = trunc i64 %17 to i32
  store i32 %18, ptr %3, align 4
  br label %22

19:                                               ; preds = %2
  %20 = load i64, ptr %4, align 8, !tbaa !32
  %21 = trunc i64 %20 to i32
  store i32 %21, ptr %3, align 4
  br label %22

22:                                               ; preds = %19, %8
  %23 = load i32, ptr %3, align 4
  ret i32 %23
}

; Function Attrs: inlinehint nounwind uwtable
define internal i32 @mul__(i32 noundef %0, i32 noundef %1, i32 noundef %2) #3 {
  %4 = alloca i32, align 4
  %5 = alloca i32, align 4
  %6 = alloca i32, align 4
  store i32 %0, ptr %4, align 4, !tbaa !34
  store i32 %1, ptr %5, align 4, !tbaa !34
  store i32 %2, ptr %6, align 4, !tbaa !34
  %7 = load i32, ptr %4, align 4, !tbaa !34
  %8 = sext i32 %7 to i64
  %9 = load i32, ptr %5, align 4, !tbaa !34
  %10 = sext i32 %9 to i64
  %11 = mul nsw i64 %8, %10
  %12 = load i32, ptr %6, align 4, !tbaa !34
  %13 = call i32 @norm__(i64 noundef %11, i32 noundef %12)
  ret i32 %13
}

; Function Attrs: inlinehint nounwind uwtable
define internal i32 @mul16(i32 noundef %0, i32 noundef %1) #3 {
  %3 = alloca i32, align 4
  %4 = alloca i32, align 4
  store i32 %0, ptr %3, align 4, !tbaa !34
  store i32 %1, ptr %4, align 4, !tbaa !34
  %5 = load i32, ptr %3, align 4, !tbaa !34
  %6 = load i32, ptr %4, align 4, !tbaa !34
  %7 = call i32 @mul__(i32 noundef %5, i32 noundef %6, i32 noundef 16)
  ret i32 %7
}

; Function Attrs: nounwind uwtable
define internal void @dmix_scale_inv_c(ptr noundef %0, i32 noundef %1, i64 noundef %2) #1 {
  %4 = alloca ptr, align 8
  %5 = alloca i32, align 4
  %6 = alloca i64, align 8
  %7 = alloca i32, align 4
  store ptr %0, ptr %4, align 8, !tbaa !28
  store i32 %1, ptr %5, align 4, !tbaa !34
  store i64 %2, ptr %6, align 8, !tbaa !32
  call void @llvm.lifetime.start.p0(i64 4, ptr %7) #7
  store i32 0, ptr %7, align 4, !tbaa !34
  br label %8

8:                                                ; preds = %25, %3
  %9 = load i32, ptr %7, align 4, !tbaa !34
  %10 = sext i32 %9 to i64
  %11 = load i64, ptr %6, align 8, !tbaa !32
  %12 = icmp slt i64 %10, %11
  br i1 %12, label %13, label %28

13:                                               ; preds = %8
  %14 = load ptr, ptr %4, align 8, !tbaa !28
  %15 = load i32, ptr %7, align 4, !tbaa !34
  %16 = sext i32 %15 to i64
  %17 = getelementptr inbounds i32, ptr %14, i64 %16
  %18 = load i32, ptr %17, align 4, !tbaa !34
  %19 = load i32, ptr %5, align 4, !tbaa !34
  %20 = call i32 @mul16(i32 noundef %18, i32 noundef %19)
  %21 = load ptr, ptr %4, align 8, !tbaa !28
  %22 = load i32, ptr %7, align 4, !tbaa !34
  %23 = sext i32 %22 to i64
  %24 = getelementptr inbounds i32, ptr %21, i64 %23
  store i32 %20, ptr %24, align 4, !tbaa !34
  br label %25

25:                                               ; preds = %13
  %26 = load i32, ptr %7, align 4, !tbaa !34
  %27 = add nsw i32 %26, 1
  store i32 %27, ptr %7, align 4, !tbaa !34
  br label %8, !llvm.loop !79

28:                                               ; preds = %8
  call void @llvm.lifetime.end.p0(i64 4, ptr %7) #7
  ret void
}