; Function Attrs: nofree norecurse nosync nounwind memory(argmem: readwrite) uwtable
define internal void @dmix_scale_inv_c(ptr noundef captures(none) %0, i32 noundef %1, i64 noundef %2) #3 {
  %4 = icmp sgt i64 %2, 0
  br i1 %4, label %.lr.ph, label %._crit_edge

.lr.ph:                                           ; preds = %3
  %5 = sext i32 %1 to i64
  br label %6

6:                                                ; preds = %.lr.ph, %6
  %indvars.iv = phi i64 [ 0, %.lr.ph ], [ %indvars.iv.next, %6 ]
  %7 = getelementptr inbounds nuw i32, ptr %0, i64 %indvars.iv
  %8 = load i32, ptr %7, align 4, !tbaa !23
  %9 = sext i32 %8 to i64
  %10 = mul nsw i64 %9, %5
  %11 = add nsw i64 %10, 32768
  %12 = lshr i64 %11, 16
  %13 = trunc i64 %12 to i32
  store i32 %13, ptr %7, align 4, !tbaa !23
  %indvars.iv.next = add nuw nsw i64 %indvars.iv, 1
  %exitcond.not = icmp eq i64 %indvars.iv.next, %2
  br i1 %exitcond.not, label %._crit_edge, label %6, !llvm.loop !65

._crit_edge:                                      ; preds = %6, %3
  ret void
}